; Function Attrs: nounwind uwtable
define dso_local i32 @compare_scalars_simple(ptr noundef readonly captures(none) %0, ptr noundef readonly captures(none) %1, ptr noundef %2) local_unnamed_addr #0 {
  %4 = load i64, ptr %0, align 8
  %5 = load i64, ptr %1, align 8
  %6 = getelementptr inbounds nuw i8, ptr %2, i64 24
  %7 = load ptr, ptr %6, align 8
  %8 = tail call i32 %7(i64 noundef %4, i64 noundef %5, ptr noundef %2) #10
  %9 = getelementptr inbounds nuw i8, ptr %2, i64 12
  %10 = load i8, ptr %9, align 4, !range !8, !noundef !9
  %11 = trunc nuw i8 %10 to i1
  %12 = icmp slt i32 %8, 0
  %13 = sub i32 0, %8
  %14 = select i1 %12, i32 1, i32 %13
  %.0.i.i = select i1 %11, i32 %14, i32 %8
  ret i32 %.0.i.i
}